target datalayout = "e-m:e-p270:32:32-p271:32:32-p272:64:64-i64:64-i128:128-f80:128-n8:16:32:64-S128"
target triple = "x86_64-pc-linux-gnu"

; Function Attrs: nounwind uwtable
define hidden i32 @KeccakWidth1600_12rounds_Sponge(i32 noundef %0, i32 noundef %1, ptr noundef %2, i64 noundef %3, i8 noundef zeroext %4, ptr noundef %5, i64 noundef %6) #0 {
  %8 = alloca i32, align 4
  %9 = alloca i32, align 4
  %10 = alloca i32, align 4
  %11 = alloca ptr, align 8
  %12 = alloca i64, align 8
  %13 = alloca i8, align 1
  %14 = alloca ptr, align 8
  %15 = alloca i64, align 8
  %16 = alloca [200 x i8], align 8
  %17 = alloca i32, align 4
  %18 = alloca ptr, align 8
  %19 = alloca ptr, align 8
  %20 = alloca i32, align 4
  %21 = alloca i32, align 4
  store i32 %0, ptr %9, align 4, !tbaa !4
  store i32 %1, ptr %10, align 4, !tbaa !4
  store ptr %2, ptr %11, align 8, !tbaa !8
  store i64 %3, ptr %12, align 8, !tbaa !11
  store i8 %4, ptr %13, align 1, !tbaa !13
  store ptr %5, ptr %14, align 8, !tbaa !8
  store i64 %6, ptr %15, align 8, !tbaa !11
  call void @llvm.lifetime.start.p0(i64 200, ptr %16) #3
  call void @llvm.lifetime.start.p0(i64 4, ptr %17) #3
  call void @llvm.lifetime.start.p0(i64 8, ptr %18) #3
  %22 = load ptr, ptr %11, align 8, !tbaa !8
  store ptr %22, ptr %18, align 8, !tbaa !8
  call void @llvm.lifetime.start.p0(i64 8, ptr %19) #3
  %23 = load ptr, ptr %14, align 8, !tbaa !8
  store ptr %23, ptr %19, align 8, !tbaa !8
  call void @llvm.lifetime.start.p0(i64 4, ptr %20) #3
  %24 = load i32, ptr %9, align 4, !tbaa !4
  %25 = udiv i32 %24, 8
  store i32 %25, ptr %20, align 4, !tbaa !4
  %26 = load i32, ptr %9, align 4, !tbaa !4
  %27 = load i32, ptr %10, align 4, !tbaa !4
  %28 = add i32 %26, %27
  %29 = icmp ne i32 %28, 1600
  br i1 %29, label %30, label %31

30:                                               ; preds = %7
  store i32 1, ptr %8, align 4
  store i32 1, ptr %21, align 4
  br label %128

31:                                               ; preds = %7
  %32 = load i32, ptr %9, align 4, !tbaa !4
  %33 = icmp ule i32 %32, 0
  br i1 %33, label %41, label %34

34:                                               ; preds = %31
  %35 = load i32, ptr %9, align 4, !tbaa !4
  %36 = icmp ugt i32 %35, 1600
  br i1 %36, label %41, label %37

37:                                               ; preds = %34
  %38 = load i32, ptr %9, align 4, !tbaa !4
  %39 = urem i32 %38, 8
  %40 = icmp ne i32 %39, 0
  br i1 %40, label %41, label %42

41:                                               ; preds = %37, %34, %31
  store i32 1, ptr %8, align 4
  store i32 1, ptr %21, align 4
  br label %128

42:                                               ; preds = %37
  %43 = load i8, ptr %13, align 1, !tbaa !13
  %44 = zext i8 %43 to i32
  %45 = icmp eq i32 %44, 0
  br i1 %45, label %46, label %47

46:                                               ; preds = %42
  store i32 1, ptr %8, align 4
  store i32 1, ptr %21, align 4
  br label %128

47:                                               ; preds = %42
  %48 = getelementptr inbounds [200 x i8], ptr %16, i64 0, i64 0
  call void @KeccakP1600_Initialize(ptr noundef %48)
  br label %49

49:                                               ; preds = %54, %47
  %50 = load i64, ptr %12, align 8, !tbaa !11
  %51 = load i32, ptr %20, align 4, !tbaa !4
  %52 = zext i32 %51 to i64
  %53 = icmp uge i64 %50, %52
  br i1 %53, label %54, label %67

54:                                               ; preds = %49
  %55 = getelementptr inbounds [200 x i8], ptr %16, i64 0, i64 0
  %56 = load ptr, ptr %18, align 8, !tbaa !8
  %57 = load i32, ptr %20, align 4, !tbaa !4
  call void @KeccakP1600_AddBytes(ptr noundef %55, ptr noundef %56, i32 noundef 0, i32 noundef %57)
  %58 = getelementptr inbounds [200 x i8], ptr %16, i64 0, i64 0
  call void @KeccakP1600_Permute_12rounds(ptr noundef %58)
  %59 = load i32, ptr %20, align 4, !tbaa !4
  %60 = load ptr, ptr %18, align 8, !tbaa !8
  %61 = zext i32 %59 to i64
  %62 = getelementptr inbounds nuw i8, ptr %60, i64 %61
  store ptr %62, ptr %18, align 8, !tbaa !8
  %63 = load i32, ptr %20, align 4, !tbaa !4
  %64 = zext i32 %63 to i64
  %65 = load i64, ptr %12, align 8, !tbaa !11
  %66 = sub i64 %65, %64
  store i64 %66, ptr %12, align 8, !tbaa !11
  br label %49

67:                                               ; preds = %49
  %68 = load i64, ptr %12, align 8, !tbaa !11
  %69 = trunc i64 %68 to i32
  store i32 %69, ptr %17, align 4, !tbaa !4
  %70 = getelementptr inbounds [200 x i8], ptr %16, i64 0, i64 0
  %71 = load ptr, ptr %18, align 8, !tbaa !8
  %72 = load i32, ptr %17, align 4, !tbaa !4
  call void @KeccakP1600_AddBytes(ptr noundef %70, ptr noundef %71, i32 noundef 0, i32 noundef %72)
  %73 = load i8, ptr %13, align 1, !tbaa !13
  %74 = zext i8 %73 to i32
  %75 = getelementptr inbounds [200 x i8], ptr %16, i64 0, i64 0
  %76 = load i32, ptr %17, align 4, !tbaa !4
  %77 = zext i32 %76 to i64
  %78 = getelementptr inbounds nuw i8, ptr %75, i64 %77
  %79 = load i8, ptr %78, align 1, !tbaa !13
  %80 = zext i8 %79 to i32
  %81 = xor i32 %80, %74
  %82 = trunc i32 %81 to i8
  store i8 %82, ptr %78, align 1, !tbaa !13
  %83 = load i8, ptr %13, align 1, !tbaa !13
  %84 = zext i8 %83 to i32
  %85 = icmp sge i32 %84, 128
  br i1 %85, label %86, label %93

86:                                               ; preds = %67
  %87 = load i32, ptr %17, align 4, !tbaa !4
  %88 = load i32, ptr %20, align 4, !tbaa !4
  %89 = sub i32 %88, 1
  %90 = icmp eq i32 %87, %89
  br i1 %90, label %91, label %93

91:                                               ; preds = %86
  %92 = getelementptr inbounds [200 x i8], ptr %16, i64 0, i64 0
  call void @KeccakP1600_Permute_12rounds(ptr noundef %92)
  br label %93

93:                                               ; preds = %91, %86, %67
  %94 = getelementptr inbounds [200 x i8], ptr %16, i64 0, i64 0
  %95 = load i32, ptr %20, align 4, !tbaa !4
  %96 = sub i32 %95, 1
  %97 = zext i32 %96 to i64
  %98 = getelementptr inbounds nuw i8, ptr %94, i64 %97
  %99 = load i8, ptr %98, align 1, !tbaa !13
  %100 = zext i8 %99 to i32
  %101 = xor i32 %100, 128
  %102 = trunc i32 %101 to i8
  store i8 %102, ptr %98, align 1, !tbaa !13
  %103 = getelementptr inbounds [200 x i8], ptr %16, i64 0, i64 0
  call void @KeccakP1600_Permute_12rounds(ptr noundef %103)
  br label %104

104:                                              ; preds = %109, %93
  %105 = load i64, ptr %15, align 8, !tbaa !11
  %106 = load i32, ptr %20, align 4, !tbaa !4
  %107 = zext i32 %106 to i64
  %108 = icmp ugt i64 %105, %107
  br i1 %108, label %109, label %122

109:                                              ; preds = %104
  %110 = getelementptr inbounds [200 x i8], ptr %16, i64 0, i64 0
  %111 = load ptr, ptr %19, align 8, !tbaa !8
  %112 = load i32, ptr %20, align 4, !tbaa !4
  call void @KeccakP1600_ExtractBytes(ptr noundef %110, ptr noundef %111, i32 noundef 0, i32 noundef %112)
  %113 = getelementptr inbounds [200 x i8], ptr %16, i64 0, i64 0
  call void @KeccakP1600_Permute_12rounds(ptr noundef %113)
  %114 = load i32, ptr %20, align 4, !tbaa !4
  %115 = load ptr, ptr %19, align 8, !tbaa !8
  %116 = zext i32 %114 to i64
  %117 = getelementptr inbounds nuw i8, ptr %115, i64 %116
  store ptr %117, ptr %19, align 8, !tbaa !8
  %118 = load i32, ptr %20, align 4, !tbaa !4
  %119 = zext i32 %118 to i64
  %120 = load i64, ptr %15, align 8, !tbaa !11
  %121 = sub i64 %120, %119
  store i64 %121, ptr %15, align 8, !tbaa !11
  br label %104

122:                                              ; preds = %104
  %123 = load i64, ptr %15, align 8, !tbaa !11
  %124 = trunc i64 %123 to i32
  store i32 %124, ptr %17, align 4, !tbaa !4
  %125 = getelementptr inbounds [200 x i8], ptr %16, i64 0, i64 0
  %126 = load ptr, ptr %19, align 8, !tbaa !8
  %127 = load i32, ptr %17, align 4, !tbaa !4
  call void @KeccakP1600_ExtractBytes(ptr noundef %125, ptr noundef %126, i32 noundef 0, i32 noundef %127)
  store i32 0, ptr %8, align 4
  store i32 1, ptr %21, align 4
  br label %128

128:                                              ; preds = %122, %46, %41, %30
  call void @llvm.lifetime.end.p0(i64 4, ptr %20) #3
  call void @llvm.lifetime.end.p0(i64 8, ptr %19) #3
  call void @llvm.lifetime.end.p0(i64 8, ptr %18) #3
  call void @llvm.lifetime.end.p0(i64 4, ptr %17) #3
  call void @llvm.lifetime.end.p0(i64 200, ptr %16) #3
  %129 = load i32, ptr %8, align 4
  ret i32 %129
}