; Function Attrs: nounwind uwtable
define hidden range(i32 0, 2) i32 @KeccakWidth1600_12rounds_Sponge(i32 noundef %0, i32 noundef %1, ptr noundef %2, i64 noundef %3, i8 noundef zeroext %4, ptr noundef %5, i64 noundef %6) local_unnamed_addr #0 {
  %8 = alloca [200 x i8], align 8
  call void @llvm.lifetime.start.p0(i64 200, ptr nonnull %8) #4
  %9 = lshr i32 %0, 3
  %10 = add i32 %1, %0
  %.not = icmp eq i32 %10, 1600
  br i1 %.not, label %11, label %37

11:                                               ; preds = %7
  %12 = add i32 %0, -1601
  %or.cond = icmp ult i32 %12, -1600
  %13 = and i32 %0, 7
  %.not45 = icmp ne i32 %13, 0
  %or.cond47.not51 = or i1 %or.cond, %.not45
  %14 = icmp eq i8 %4, 0
  %or.cond50 = or i1 %or.cond47.not51, %14
  br i1 %or.cond50, label %37, label %15

15:                                               ; preds = %11
  call void @KeccakP1600_Initialize(ptr noundef nonnull %8) #4
  %16 = zext nneg i32 %9 to i64
  %.not4652 = icmp ult i64 %3, %16
  br i1 %.not4652, label %._crit_edge, label %.lr.ph

.lr.ph:                                           ; preds = %15, %.lr.ph
  %.03954 = phi ptr [ %17, %.lr.ph ], [ %2, %15 ]
  %.04153 = phi i64 [ %18, %.lr.ph ], [ %3, %15 ]
  call void @KeccakP1600_AddBytes(ptr noundef nonnull %8, ptr noundef %.03954, i32 noundef 0, i32 noundef %9) #4
  call void @KeccakP1600_Permute_12rounds(ptr noundef nonnull %8) #4
  %17 = getelementptr inbounds nuw i8, ptr %.03954, i64 %16
  %18 = sub nuw i64 %.04153, %16
  %.not46 = icmp ult i64 %18, %16
  br i1 %.not46, label %._crit_edge, label %.lr.ph

._crit_edge:                                      ; preds = %.lr.ph, %15
  %.041.lcssa = phi i64 [ %3, %15 ], [ %18, %.lr.ph ]
  %.039.lcssa = phi ptr [ %2, %15 ], [ %17, %.lr.ph ]
  %19 = trunc nuw nsw i64 %.041.lcssa to i32
  call void @KeccakP1600_AddBytes(ptr noundef nonnull %8, ptr noundef %.039.lcssa, i32 noundef 0, i32 noundef %19) #4
  %20 = getelementptr inbounds nuw i8, ptr %8, i64 %.041.lcssa
  %21 = load i8, ptr %20, align 1, !tbaa !4
  %22 = xor i8 %21, %4
  store i8 %22, ptr %20, align 1, !tbaa !4
  %23 = icmp slt i8 %4, 0
  %24 = add nsw i32 %9, -1
  %25 = icmp eq i32 %24, %19
  %or.cond49 = select i1 %23, i1 %25, i1 false
  br i1 %or.cond49, label %26, label %27

26:                                               ; preds = %._crit_edge
  call void @KeccakP1600_Permute_12rounds(ptr noundef nonnull %8) #4
  br label %27

27:                                               ; preds = %26, %._crit_edge
  %28 = zext i32 %24 to i64
  %29 = getelementptr inbounds nuw i8, ptr %8, i64 %28
  %30 = load i8, ptr %29, align 1, !tbaa !4
  %31 = xor i8 %30, -128
  store i8 %31, ptr %29, align 1, !tbaa !4
  call void @KeccakP1600_Permute_12rounds(ptr noundef nonnull %8) #4
  %32 = icmp ugt i64 %6, %16
  br i1 %32, label %.lr.ph60, label %._crit_edge61

.lr.ph60:                                         ; preds = %27, %.lr.ph60
  %.03858 = phi ptr [ %33, %.lr.ph60 ], [ %5, %27 ]
  %.04057 = phi i64 [ %34, %.lr.ph60 ], [ %6, %27 ]
  call void @KeccakP1600_ExtractBytes(ptr noundef nonnull %8, ptr noundef %.03858, i32 noundef 0, i32 noundef %9) #4
  call void @KeccakP1600_Permute_12rounds(ptr noundef nonnull %8) #4
  %33 = getelementptr inbounds nuw i8, ptr %.03858, i64 %16
  %34 = sub nuw i64 %.04057, %16
  %35 = icmp ugt i64 %34, %16
  br i1 %35, label %.lr.ph60, label %._crit_edge61

._crit_edge61:                                    ; preds = %.lr.ph60, %27
  %.040.lcssa = phi i64 [ %6, %27 ], [ %34, %.lr.ph60 ]
  %.038.lcssa = phi ptr [ %5, %27 ], [ %33, %.lr.ph60 ]
  %36 = trunc nuw nsw i64 %.040.lcssa to i32
  call void @KeccakP1600_ExtractBytes(ptr noundef nonnull %8, ptr noundef %.038.lcssa, i32 noundef 0, i32 noundef %36) #4
  br label %37

37:                                               ; preds = %11, %7, %._crit_edge61
  %.0 = phi i32 [ 0, %._crit_edge61 ], [ 1, %7 ], [ 1, %11 ]
  call void @llvm.lifetime.end.p0(i64 200, ptr nonnull %8) #4
  ret i32 %.0
}